; Function Attrs: mustprogress nofree norecurse nosync nounwind willreturn memory(argmem: readwrite) uwtable
define void @_ZN12ErrorHandler12SetErrorCodeE8RAR_EXIT(ptr nocapture noundef nonnull align 4 dereferenceable(14) %0, i32 noundef %1) local_unnamed_addr #4 align 2 {
  switch i32 %1, label %.sink.split [
    i32 1, label %3
    i32 255, label %3
    i32 3, label %6
    i32 2, label %8
  ]

3:                                                ; preds = %2, %2
  %4 = load i32, ptr %0, align 4
  %5 = icmp eq i32 %4, 0
  br i1 %5, label %.sink.split, label %10

6:                                                ; preds = %2
  %7 = load i32, ptr %0, align 4
  %.not = icmp eq i32 %7, 11
  br i1 %.not, label %10, label %.sink.split

8:                                                ; preds = %2
  %9 = load i32, ptr %0, align 4
  %switch = icmp ult i32 %9, 2
  br i1 %switch, label %.sink.split, label %10

.sink.split:                                      ; preds = %2, %8, %6, %3
  %.sink = phi i32 [ %1, %3 ], [ 3, %6 ], [ 2, %8 ], [ %1, %2 ]
  store i32 %.sink, ptr %0, align 4
  br label %10

10:                                               ; preds = %.sink.split, %8, %6, %3
  %11 = getelementptr inbounds i8, ptr %0, i64 4
  %12 = load i32, ptr %11, align 4
  %13 = add i32 %12, 1
  store i32 %13, ptr %11, align 4
  ret void
}